target datalayout = "e-m:e-p270:32:32-p271:32:32-p272:64:64-i64:64-i128:128-f80:128-n8:16:32:64-S128"
target triple = "x86_64-pc-linux-gnu"

%class.QString = type { %struct.QArrayDataPointer }
%struct.QArrayDataPointer = type { ptr, ptr, i64 }
%class.QPaintDevice.base = type <{ ptr, i16 }>
%class.TCPStreamDialog = type { %class.GeometryStateDialog, ptr, ptr, %class.QMultiMap, double, i8, %class.QMap, double, i8, %struct.tcp_graph, ptr, %class.QString, ptr, ptr, ptr, ptr, ptr, ptr, ptr, ptr, ptr, ptr, ptr, ptr, ptr, ptr, %class.QRectF, i32, [4 x i8], %class.QTransform, i8, ptr, %class.QPoint, %class.QMenu, %"class.TCPStreamDialog::GraphUpdater", i32, i32, i32, double }
%class.GeometryStateDialog = type { %class.QDialog, %class.QString }
%class.QDialog = type { %class.QWidget }
%class.QWidget = type { %class.QObject, %class.QPaintDevice.base, ptr }
%class.QObject = type { ptr, %class.QScopedPointer }
%class.QScopedPointer = type { ptr }
%class.QMultiMap = type { %"class.QtPrivate::QExplicitlySharedDataPointerV2" }
%"class.QtPrivate::QExplicitlySharedDataPointerV2" = type { ptr }
%class.QMap = type { %"class.QtPrivate::QExplicitlySharedDataPointerV2.5" }
%"class.QtPrivate::QExplicitlySharedDataPointerV2.5" = type { ptr }
%struct.tcp_graph = type { i32, %struct._address, i16, %struct._address, i16, i32, ptr }
%struct._address = type { i32, i32, ptr, ptr }
%class.QRectF = type { double, double, double, double }
%class.QTransform = type <{ [3 x [3 x double]], i16, [6 x i8] }>
%class.QPoint = type { i32, i32 }
%class.QMenu = type { %class.QWidget }
%"class.TCPStreamDialog::GraphUpdater" = type <{ ptr, ptr, i8, [7 x i8] }>
%class.Ui_TCPStreamDialog = type { ptr, ptr, ptr, ptr, ptr, ptr, ptr, ptr, ptr, ptr, ptr, ptr, ptr, ptr, ptr, ptr, ptr, ptr, ptr, ptr, ptr, ptr, ptr, ptr, ptr, ptr, ptr, ptr, ptr, ptr, ptr, ptr, ptr, ptr, ptr, ptr, ptr, ptr, ptr, ptr, ptr, ptr, ptr, ptr, ptr, ptr, ptr, ptr, ptr, ptr, ptr, ptr, ptr, ptr, ptr, ptr, ptr }

; Function Attrs: mustprogress uwtable
define void @_ZN15TCPStreamDialog11updateGraphEv(ptr noundef nonnull align 8 dereferenceable(584) %0) #1 align 2 {
  %2 = alloca ptr, align 8
  store ptr %0, ptr %2, align 8
  %3 = load ptr, ptr %2, align 8
  %4 = getelementptr inbounds %class.TCPStreamDialog, ptr %3, i32 0, i32 34
  call void @_ZN15TCPStreamDialog12GraphUpdater8doUpdateEv(ptr noundef nonnull align 8 dereferenceable(17) %4)
  ret void
}

; Function Attrs: mustprogress uwtable
define void @_ZN15TCPStreamDialog29on_actionNextStream_triggeredEv(ptr noundef nonnull align 8 dereferenceable(584) %0) #1 align 2 {
  %2 = alloca ptr, align 8
  store ptr %0, ptr %2, align 8
  %3 = load ptr, ptr %2, align 8
  %4 = getelementptr inbounds %class.TCPStreamDialog, ptr %3, i32 0, i32 9
  %5 = getelementptr inbounds %struct.tcp_graph, ptr %4, i32 0, i32 5
  %6 = load i32, ptr %5, align 4
  %7 = call i32 @get_tcp_stream_count()
  %8 = sub i32 %7, 1
  %9 = icmp slt i32 %6, %8
  br i1 %9, label %10, label %19

10:                                               ; preds = %1
  %11 = getelementptr inbounds %class.TCPStreamDialog, ptr %3, i32 0, i32 1
  %12 = load ptr, ptr %11, align 8
  %13 = getelementptr inbounds %class.Ui_TCPStreamDialog, ptr %12, i32 0, i32 40
  %14 = load ptr, ptr %13, align 8
  %15 = getelementptr inbounds %class.TCPStreamDialog, ptr %3, i32 0, i32 9
  %16 = getelementptr inbounds %struct.tcp_graph, ptr %15, i32 0, i32 5
  %17 = load i32, ptr %16, align 4
  %18 = add i32 %17, 1
  call void @_ZN8QSpinBox8setValueEi(ptr noundef nonnull align 8 dereferenceable(40) %14, i32 noundef %18)
  call void @_ZN15TCPStreamDialog11updateGraphEv(ptr noundef nonnull align 8 dereferenceable(584) %3)
  br label %19

19:                                               ; preds = %10, %1
  ret void
}