; Function Attrs: mustprogress uwtable
define void @_ZN15TCPStreamDialog29on_actionNextStream_triggeredEv(ptr nocapture noundef nonnull align 8 dereferenceable(584) %0) local_unnamed_addr #2 align 2 {
  %2 = getelementptr inbounds i8, ptr %0, i64 196
  %3 = load i32, ptr %2, align 4
  %4 = tail call i32 @get_tcp_stream_count()
  %5 = add i32 %4, -1
  %6 = icmp slt i32 %3, %5
  br i1 %6, label %7, label %15

7:                                                ; preds = %1
  %8 = getelementptr inbounds i8, ptr %0, i64 64
  %9 = load ptr, ptr %8, align 8
  %10 = getelementptr inbounds i8, ptr %9, i64 320
  %11 = load ptr, ptr %10, align 8
  %12 = load i32, ptr %2, align 4
  %13 = add i32 %12, 1
  tail call void @_ZN8QSpinBox8setValueEi(ptr noundef nonnull align 8 dereferenceable(40) %11, i32 noundef %13)
  %14 = getelementptr inbounds i8, ptr %0, i64 536
  tail call void @_ZN15TCPStreamDialog12GraphUpdater8doUpdateEv(ptr noundef nonnull align 8 dereferenceable(17) %14)
  br label %15

15:                                               ; preds = %7, %1
  ret void
}